; Function Attrs: mustprogress uwtable
define void @_ZN8proxygen11HTTPMessage15setHTTPPriorityENS_12HTTPPriorityE(ptr noundef nonnull align 8 dereferenceable(616) %this, ptr nocapture noundef nonnull readonly %httpPriority) local_unnamed_addr #2 align 2 personality ptr @__gxx_personality_v0 {
entry:
  %ref.tmp = alloca %"class.std::__cxx11::basic_string", align 8
  %headers_ = getelementptr inbounds i8, ptr %this, i64 480
  call void @_ZN8proxygen20httpPriorityToStringB5cxx11ERKNS_12HTTPPriorityE(ptr nonnull sret(%"class.std::__cxx11::basic_string") align 8 %ref.tmp, ptr noundef nonnull align 8 dereferenceable(16) %httpPriority)
  %call.i1 = invoke noundef zeroext i1 @_ZN8proxygen11HTTPHeaders6removeENS_14HTTPHeaderCodeE(ptr noundef nonnull align 8 dereferenceable(32) %headers_, i8 noundef zeroext 47)
          to label %call.i.noexc unwind label %lpad

call.i.noexc:                                     ; preds = %entry
  invoke void @_ZN8proxygen11HTTPHeaders3addIRKNSt7__cxx1112basic_stringIcSt11char_traitsIcESaIcEEEEEvNS_14HTTPHeaderCodeEOT_(ptr noundef nonnull align 8 dereferenceable(32) %headers_, i8 noundef zeroext 47, ptr noundef nonnull align 8 dereferenceable(32) %ref.tmp)
          to label %invoke.cont unwind label %lpad

invoke.cont:                                      ; preds = %call.i.noexc
  call void @_ZNSt7__cxx1112basic_stringIcSt11char_traitsIcESaIcEED1Ev(ptr noundef nonnull align 8 dereferenceable(32) %ref.tmp) #23
  ret void

lpad:                                             ; preds = %call.i.noexc, %entry
  %0 = landingpad { ptr, i32 }
          cleanup
  call void @_ZNSt7__cxx1112basic_stringIcSt11char_traitsIcESaIcEED1Ev(ptr noundef nonnull align 8 dereferenceable(32) %ref.tmp) #23
  resume { ptr, i32 } %0
}